; Function Attrs: mustprogress uwtable
define hidden ptr @_ZNK7datalog7context9print_aigEv(ptr nocapture noundef nonnull readonly align 8 dereferenceable(3556) %this) local_unnamed_addr #3 align 2 {
entry:
  %ref.tmp.i = alloca %class.symbol, align 8
  %m_params = getelementptr inbounds i8, ptr %this, i64 32
  %0 = load ptr, ptr %m_params, align 8
  call void @llvm.lifetime.start.p0(i64 8, ptr nonnull %ref.tmp.i)
  %1 = load ptr, ptr %0, align 8
  %g.i = getelementptr inbounds i8, ptr %0, i64 8
  call void @_ZN6symbolC1EPKc(ptr noundef nonnull align 8 dereferenceable(8) %ref.tmp.i, ptr noundef nonnull @.str.36)
  %call.i = call ptr @_ZNK10params_ref7get_symEPKcRKS_RK6symbol(ptr noundef nonnull align 8 dereferenceable(8) %1, ptr noundef nonnull @.str.52, ptr noundef nonnull align 8 dereferenceable(8) %g.i, ptr noundef nonnull align 8 dereferenceable(8) %ref.tmp.i)
  call void @llvm.lifetime.end.p0(i64 8, ptr nonnull %ref.tmp.i)
  ret ptr %call.i
}